; ModuleID = '57/2072.c'
source_filename = "57/2072.c"
target datalayout = "e-m:e-p270:32:32-p271:32:32-p272:64:64-i64:64-f80:128-n8:16:32:64-S128"
target triple = "x86_64-pc-linux-gnu"

@.str = private unnamed_addr constant [4 x i8] c"%d\0A\00", align 1
@.str.1 = private unnamed_addr constant [3 x i8] c"%c\00", align 1
@.str.2 = private unnamed_addr constant [2 x i8] c"\0A\00", align 1

; Function Attrs: noinline nounwind uwtable
define dso_local void @main() #0 {
  %1 = alloca i32, align 4
  %2 = alloca i32, align 4
  %3 = alloca i32, align 4
  %4 = alloca i32, align 4
  %5 = alloca [200 x i8], align 16
  %6 = alloca [200 x i8], align 16
  store i32 1, i32* %2, align 4
  %7 = bitcast [200 x i8]* %6 to i8*
  call void @llvm.memset.p0i8.i64(i8* align 16 %7, i8 0, i64 200, i1 false)
  %8 = call i32 (i8*, ...) @__isoc99_scanf(i8* getelementptr inbounds ([4 x i8], [4 x i8]* @.str, i64 0, i64 0), i32* %1)
  br label %9

9:                                                ; preds = %77, %0
  %10 = load i32, i32* %2, align 4
  %11 = load i32, i32* %1, align 4
  %12 = icmp sle i32 %10, %11
  br i1 %12, label %13, label %81

13:                                               ; preds = %9
  %14 = getelementptr inbounds [200 x i8], [200 x i8]* %5, i64 0, i64 0
  %15 = call i32 (i8*, ...) bitcast (i32 (...)* @gets to i32 (i8*, ...)*)(i8* %14)
  %16 = getelementptr inbounds [200 x i8], [200 x i8]* %5, i64 0, i64 0
  %17 = call i64 @strlen(i8* %16) #4
  %18 = trunc i64 %17 to i32
  store i32 %18, i32* %4, align 4
  %19 = load i32, i32* %4, align 4
  %20 = sub nsw i32 %19, 1
  %21 = sext i32 %20 to i64
  %22 = getelementptr inbounds [200 x i8], [200 x i8]* %5, i64 0, i64 %21
  %23 = load i8, i8* %22, align 1
  %24 = sext i8 %23 to i32
  %25 = icmp eq i32 %24, 114
  br i1 %25, label %34, label %26

26:                                               ; preds = %13
  %27 = load i32, i32* %4, align 4
  %28 = sub nsw i32 %27, 1
  %29 = sext i32 %28 to i64
  %30 = getelementptr inbounds [200 x i8], [200 x i8]* %5, i64 0, i64 %29
  %31 = load i8, i8* %30, align 1
  %32 = sext i8 %31 to i32
  %33 = icmp eq i32 %32, 121
  br i1 %33, label %34, label %51

34:                                               ; preds = %26, %13
  store i32 0, i32* %3, align 4
  br label %35

35:                                               ; preds = %47, %34
  %36 = load i32, i32* %3, align 4
  %37 = load i32, i32* %4, align 4
  %38 = sub nsw i32 %37, 3
  %39 = icmp sle i32 %36, %38
  br i1 %39, label %40, label %50

40:                                               ; preds = %35
  %41 = load i32, i32* %3, align 4
  %42 = sext i32 %41 to i64
  %43 = getelementptr inbounds [200 x i8], [200 x i8]* %5, i64 0, i64 %42
  %44 = load i8, i8* %43, align 1
  %45 = sext i8 %44 to i32
  %46 = call i32 (i8*, ...) @printf(i8* getelementptr inbounds ([3 x i8], [3 x i8]* @.str.1, i64 0, i64 0), i32 %45)
  br label %47

47:                                               ; preds = %40
  %48 = load i32, i32* %3, align 4
  %49 = add nsw i32 %48, 1
  store i32 %49, i32* %3, align 4
  br label %35

50:                                               ; preds = %35
  br label %77

51:                                               ; preds = %26
  %52 = load i32, i32* %4, align 4
  %53 = sub nsw i32 %52, 1
  %54 = sext i32 %53 to i64
  %55 = getelementptr inbounds [200 x i8], [200 x i8]* %5, i64 0, i64 %54
  %56 = load i8, i8* %55, align 1
  %57 = sext i8 %56 to i32
  %58 = icmp eq i32 %57, 103
  br i1 %58, label %59, label %76

59:                                               ; preds = %51
  store i32 0, i32* %3, align 4
  br label %60

60:                                               ; preds = %72, %59
  %61 = load i32, i32* %3, align 4
  %62 = load i32, i32* %4, align 4
  %63 = sub nsw i32 %62, 4
  %64 = icmp sle i32 %61, %63
  br i1 %64, label %65, label %75

65:                                               ; preds = %60
  %66 = load i32, i32* %3, align 4
  %67 = sext i32 %66 to i64
  %68 = getelementptr inbounds [200 x i8], [200 x i8]* %5, i64 0, i64 %67
  %69 = load i8, i8* %68, align 1
  %70 = sext i8 %69 to i32
  %71 = call i32 (i8*, ...) @printf(i8* getelementptr inbounds ([3 x i8], [3 x i8]* @.str.1, i64 0, i64 0), i32 %70)
  br label %72

72:                                               ; preds = %65
  %73 = load i32, i32* %3, align 4
  %74 = add nsw i32 %73, 1
  store i32 %74, i32* %3, align 4
  br label %60

75:                                               ; preds = %60
  br label %76

76:                                               ; preds = %75, %51
  br label %77

77:                                               ; preds = %76, %50
  %78 = call i32 (i8*, ...) @printf(i8* getelementptr inbounds ([2 x i8], [2 x i8]* @.str.2, i64 0, i64 0))
  %79 = load i32, i32* %2, align 4
  %80 = add nsw i32 %79, 1
  store i32 %80, i32* %2, align 4
  br label %9

81:                                               ; preds = %9
  ret void
}

; Function Attrs: argmemonly nounwind willreturn
declare void @llvm.memset.p0i8.i64(i8* nocapture writeonly, i8, i64, i1 immarg) #1

declare dso_local i32 @__isoc99_scanf(i8*, ...) #2

declare dso_local i32 @gets(...) #2

; Function Attrs: nounwind readonly
declare dso_local i64 @strlen(i8*) #3

declare dso_local i32 @printf(i8*, ...) #2


!llvm.module.flags = !{!0}
!llvm.ident = !{!1}

!0 = !{i32 1, !"wchar_size", i32 4}
!1 = !{!"clang version 10.0.0-4ubuntu1 "}
